; Function Attrs: nounwind uwtable
define ptr @l_Lake_nameToStaticLib___boxed(ptr noundef %0) local_unnamed_addr #0 {
  %2 = load i8, ptr @l_System_Platform_isWindows, align 1, !tbaa !4
  %3 = icmp eq i8 %2, 0
  %l_Lake_nameToStaticLib___closed__1.val.i = load ptr, ptr @l_Lake_nameToStaticLib___closed__1, align 8
  %l_Lake_nameToStaticLib___closed__3.val.i = load ptr, ptr @l_Lake_nameToStaticLib___closed__3, align 8
  %4 = select i1 %3, ptr %l_Lake_nameToStaticLib___closed__1.val.i, ptr %l_Lake_nameToStaticLib___closed__3.val.i
  %5 = tail call ptr @lean_string_append(ptr noundef %4, ptr noundef %0) #3
  %6 = load ptr, ptr @l_Lake_nameToStaticLib___closed__2, align 8, !tbaa !7
  %7 = tail call ptr @lean_string_append(ptr noundef %5, ptr noundef %6) #3
  %8 = ptrtoint ptr %0 to i64
  %9 = and i64 %8, 1
  %.not = icmp eq i64 %9, 0
  br i1 %.not, label %10, label %lean_dec.exit

10:                                               ; preds = %1
  %11 = load i32, ptr %0, align 4, !tbaa !9
  %12 = icmp sgt i32 %11, 1
  br i1 %12, label %13, label %15, !prof !12

13:                                               ; preds = %10
  %14 = add nsw i32 %11, -1
  store i32 %14, ptr %0, align 4, !tbaa !9
  br label %lean_dec.exit

15:                                               ; preds = %10
  %.not.i = icmp eq i32 %11, 0
  br i1 %.not.i, label %lean_dec.exit, label %16

16:                                               ; preds = %15
  tail call void @lean_dec_ref_cold(ptr noundef nonnull %0) #3
  br label %lean_dec.exit

lean_dec.exit:                                    ; preds = %16, %15, %13, %1
  ret ptr %7
}